target datalayout = "e-m:e-p270:32:32-p271:32:32-p272:64:64-i64:64-f80:128-n8:16:32:64-S128"
target triple = "x86_64-pc-linux-gnu"

@.str = private unnamed_addr constant [3 x i8] c"%d\00", align 1
@.str.1 = private unnamed_addr constant [6 x i8] c"%s %s\00", align 1
@.str.2 = private unnamed_addr constant [7 x i8] c"%c\0A%d\0A\00", align 1
@.str.3 = private unnamed_addr constant [4 x i8] c"%s\0A\00", align 1

; Function Attrs: noinline nounwind uwtable
define dso_local i32 @main() #0 {
  %1 = alloca i32, align 4
  %2 = alloca i32, align 4
  %3 = alloca [1000 x [10 x i8]], align 16
  %4 = alloca [1000 x [30 x i8]], align 16
  %5 = alloca [1000 x i32], align 16
  %6 = alloca [150 x i32], align 16
  %7 = alloca i32, align 4
  %8 = alloca i32, align 4
  %9 = alloca i32, align 4
  %10 = alloca i32, align 4
  %11 = alloca i32, align 4
  %12 = alloca i32, align 4
  %13 = alloca i32, align 4
  %14 = alloca i32, align 4
  store i32 0, i32* %1, align 4
  %15 = bitcast [1000 x [10 x i8]]* %3 to i8*
  call void @llvm.memset.p0i8.i64(i8* align 16 %15, i8 0, i64 10000, i1 false)
  %16 = bitcast [1000 x i32]* %5 to i8*
  call void @llvm.memset.p0i8.i64(i8* align 16 %16, i8 0, i64 4000, i1 false)
  %17 = bitcast [150 x i32]* %6 to i8*
  call void @llvm.memset.p0i8.i64(i8* align 16 %17, i8 0, i64 600, i1 false)
  store i32 0, i32* %7, align 4
  %18 = call i32 (i8*, ...) @__isoc99_scanf(i8* getelementptr inbounds ([3 x i8], [3 x i8]* @.str, i64 0, i64 0), i32* %2)
  store i32 0, i32* %8, align 4
  br label %19

19:                                               ; preds = %79, %0
  %20 = load i32, i32* %8, align 4
  %21 = load i32, i32* %2, align 4
  %22 = icmp slt i32 %20, %21
  br i1 %22, label %23, label %82

23:                                               ; preds = %19
  %24 = load i32, i32* %8, align 4
  %25 = sext i32 %24 to i64
  %26 = getelementptr inbounds [1000 x [10 x i8]], [1000 x [10 x i8]]* %3, i64 0, i64 %25
  %27 = getelementptr inbounds [10 x i8], [10 x i8]* %26, i64 0, i64 0
  %28 = load i32, i32* %8, align 4
  %29 = sext i32 %28 to i64
  %30 = getelementptr inbounds [1000 x [30 x i8]], [1000 x [30 x i8]]* %4, i64 0, i64 %29
  %31 = getelementptr inbounds [30 x i8], [30 x i8]* %30, i64 0, i64 0
  %32 = call i32 (i8*, ...) @__isoc99_scanf(i8* getelementptr inbounds ([6 x i8], [6 x i8]* @.str.1, i64 0, i64 0), i8* %27, i8* %31)
  %33 = load i32, i32* %8, align 4
  %34 = sext i32 %33 to i64
  %35 = getelementptr inbounds [1000 x [30 x i8]], [1000 x [30 x i8]]* %4, i64 0, i64 %34
  %36 = getelementptr inbounds [30 x i8], [30 x i8]* %35, i64 0, i64 0
  %37 = call i64 @strlen(i8* %36) #4
  %38 = trunc i64 %37 to i32
  %39 = load i32, i32* %8, align 4
  %40 = sext i32 %39 to i64
  %41 = getelementptr inbounds [1000 x i32], [1000 x i32]* %5, i64 0, i64 %40
  store i32 %38, i32* %41, align 4
  store i32 0, i32* %9, align 4
  br label %42

42:                                               ; preds = %75, %23
  %43 = load i32, i32* %9, align 4
  %44 = load i32, i32* %8, align 4
  %45 = sext i32 %44 to i64
  %46 = getelementptr inbounds [1000 x i32], [1000 x i32]* %5, i64 0, i64 %45
  %47 = load i32, i32* %46, align 4
  %48 = icmp slt i32 %43, %47
  br i1 %48, label %49, label %78

49:                                               ; preds = %42
  store i32 65, i32* %10, align 4
  br label %50

50:                                               ; preds = %71, %49
  %51 = load i32, i32* %10, align 4
  %52 = icmp sle i32 %51, 90
  br i1 %52, label %53, label %74

53:                                               ; preds = %50
  %54 = load i32, i32* %8, align 4
  %55 = sext i32 %54 to i64
  %56 = getelementptr inbounds [1000 x [30 x i8]], [1000 x [30 x i8]]* %4, i64 0, i64 %55
  %57 = load i32, i32* %9, align 4
  %58 = sext i32 %57 to i64
  %59 = getelementptr inbounds [30 x i8], [30 x i8]* %56, i64 0, i64 %58
  %60 = load i8, i8* %59, align 1
  %61 = sext i8 %60 to i32
  %62 = load i32, i32* %10, align 4
  %63 = icmp eq i32 %61, %62
  br i1 %63, label %64, label %70

64:                                               ; preds = %53
  %65 = load i32, i32* %10, align 4
  %66 = sext i32 %65 to i64
  %67 = getelementptr inbounds [150 x i32], [150 x i32]* %6, i64 0, i64 %66
  %68 = load i32, i32* %67, align 4
  %69 = add nsw i32 %68, 1
  store i32 %69, i32* %67, align 4
  br label %70

70:                                               ; preds = %64, %53
  br label %71

71:                                               ; preds = %70
  %72 = load i32, i32* %10, align 4
  %73 = add nsw i32 %72, 1
  store i32 %73, i32* %10, align 4
  br label %50

74:                                               ; preds = %50
  br label %75

75:                                               ; preds = %74
  %76 = load i32, i32* %9, align 4
  %77 = add nsw i32 %76, 1
  store i32 %77, i32* %9, align 4
  br label %42

78:                                               ; preds = %42
  br label %79

79:                                               ; preds = %78
  %80 = load i32, i32* %8, align 4
  %81 = add nsw i32 %80, 1
  store i32 %81, i32* %8, align 4
  br label %19

82:                                               ; preds = %19
  store i32 65, i32* %11, align 4
  br label %83

83:                                               ; preds = %99, %82
  %84 = load i32, i32* %11, align 4
  %85 = icmp sle i32 %84, 90
  br i1 %85, label %86, label %102

86:                                               ; preds = %83
  %87 = load i32, i32* %11, align 4
  %88 = sext i32 %87 to i64
  %89 = getelementptr inbounds [150 x i32], [150 x i32]* %6, i64 0, i64 %88
  %90 = load i32, i32* %89, align 4
  %91 = load i32, i32* %7, align 4
  %92 = icmp sgt i32 %90, %91
  br i1 %92, label %93, label %98

93:                                               ; preds = %86
  %94 = load i32, i32* %11, align 4
  %95 = sext i32 %94 to i64
  %96 = getelementptr inbounds [150 x i32], [150 x i32]* %6, i64 0, i64 %95
  %97 = load i32, i32* %96, align 4
  store i32 %97, i32* %7, align 4
  br label %98

98:                                               ; preds = %93, %86
  br label %99

99:                                               ; preds = %98
  %100 = load i32, i32* %11, align 4
  %101 = add nsw i32 %100, 1
  store i32 %101, i32* %11, align 4
  br label %83

102:                                              ; preds = %83
  store i32 65, i32* %12, align 4
  br label %103

103:                                              ; preds = %156, %102
  %104 = load i32, i32* %12, align 4
  %105 = icmp sle i32 %104, 90
  br i1 %105, label %106, label %159

106:                                              ; preds = %103
  %107 = load i32, i32* %12, align 4
  %108 = sext i32 %107 to i64
  %109 = getelementptr inbounds [150 x i32], [150 x i32]* %6, i64 0, i64 %108
  %110 = load i32, i32* %109, align 4
  %111 = load i32, i32* %7, align 4
  %112 = icmp eq i32 %110, %111
  br i1 %112, label %113, label %155

113:                                              ; preds = %106
  %114 = load i32, i32* %12, align 4
  %115 = load i32, i32* %7, align 4
  %116 = call i32 (i8*, ...) @printf(i8* getelementptr inbounds ([7 x i8], [7 x i8]* @.str.2, i64 0, i64 0), i32 %114, i32 %115)
  store i32 0, i32* %13, align 4
  br label %117

117:                                              ; preds = %151, %113
  %118 = load i32, i32* %13, align 4
  %119 = load i32, i32* %2, align 4
  %120 = icmp slt i32 %118, %119
  br i1 %120, label %121, label %154

121:                                              ; preds = %117
  store i32 0, i32* %14, align 4
  br label %122

122:                                              ; preds = %147, %121
  %123 = load i32, i32* %14, align 4
  %124 = load i32, i32* %13, align 4
  %125 = sext i32 %124 to i64
  %126 = getelementptr inbounds [1000 x i32], [1000 x i32]* %5, i64 0, i64 %125
  %127 = load i32, i32* %126, align 4
  %128 = icmp slt i32 %123, %127
  br i1 %128, label %129, label %150

129:                                              ; preds = %122
  %130 = load i32, i32* %13, align 4
  %131 = sext i32 %130 to i64
  %132 = getelementptr inbounds [1000 x [30 x i8]], [1000 x [30 x i8]]* %4, i64 0, i64 %131
  %133 = load i32, i32* %14, align 4
  %134 = sext i32 %133 to i64
  %135 = getelementptr inbounds [30 x i8], [30 x i8]* %132, i64 0, i64 %134
  %136 = load i8, i8* %135, align 1
  %137 = sext i8 %136 to i32
  %138 = load i32, i32* %12, align 4
  %139 = icmp eq i32 %137, %138
  br i1 %139, label %140, label %146

140:                                              ; preds = %129
  %141 = load i32, i32* %13, align 4
  %142 = sext i32 %141 to i64
  %143 = getelementptr inbounds [1000 x [10 x i8]], [1000 x [10 x i8]]* %3, i64 0, i64 %142
  %144 = getelementptr inbounds [10 x i8], [10 x i8]* %143, i64 0, i64 0
  %145 = call i32 (i8*, ...) @printf(i8* getelementptr inbounds ([4 x i8], [4 x i8]* @.str.3, i64 0, i64 0), i8* %144)
  br label %146

146:                                              ; preds = %140, %129
  br label %147

147:                                              ; preds = %146
  %148 = load i32, i32* %14, align 4
  %149 = add nsw i32 %148, 1
  store i32 %149, i32* %14, align 4
  br label %122

150:                                              ; preds = %122
  br label %151

151:                                              ; preds = %150
  %152 = load i32, i32* %13, align 4
  %153 = add nsw i32 %152, 1
  store i32 %153, i32* %13, align 4
  br label %117

154:                                              ; preds = %117
  br label %155

155:                                              ; preds = %154, %106
  br label %156

156:                                              ; preds = %155
  %157 = load i32, i32* %12, align 4
  %158 = add nsw i32 %157, 1
  store i32 %158, i32* %12, align 4
  br label %103

159:                                              ; preds = %103
  ret i32 0
}